target datalayout = "e-m:e-p270:32:32-p271:32:32-p272:64:64-i64:64-i128:128-f80:128-n8:16:32:64-S128"
target triple = "x86_64-pc-linux-gnu"

@actual_connection_key = internal global i32 0, align 4

; Function Attrs: nounwind uwtable
define zeroext i1 @ECPGsetconn(i32 noundef %0, ptr noundef %1) #0 {
  %3 = alloca i1, align 1
  %4 = alloca i32, align 4
  %5 = alloca ptr, align 8
  %6 = alloca ptr, align 8
  %7 = alloca i32, align 4
  store i32 %0, ptr %4, align 4
  store ptr %1, ptr %5, align 8
  call void @llvm.lifetime.start.p0(i64 8, ptr %6) #5
  %8 = load ptr, ptr %5, align 8
  %9 = call ptr @ecpg_get_connection(ptr noundef %8)
  store ptr %9, ptr %6, align 8
  %10 = load ptr, ptr %6, align 8
  %11 = load ptr, ptr %5, align 8
  %12 = load i32, ptr %4, align 4
  %13 = call zeroext i1 @ecpg_init(ptr noundef %10, ptr noundef %11, i32 noundef %12)
  br i1 %13, label %15, label %14

14:                                               ; preds = %2
  store i1 false, ptr %3, align 1
  store i32 1, ptr %7, align 4
  br label %19

15:                                               ; preds = %2
  %16 = load i32, ptr @actual_connection_key, align 4
  %17 = load ptr, ptr %6, align 8
  %18 = call i32 @pthread_setspecific(i32 noundef %16, ptr noundef %17) #5
  store i1 true, ptr %3, align 1
  store i32 1, ptr %7, align 4
  br label %19

19:                                               ; preds = %15, %14
  call void @llvm.lifetime.end.p0(i64 8, ptr %6) #5
  %20 = load i1, ptr %3, align 1
  ret i1 %20
}