; Function Attrs: nounwind uwtable
define noundef zeroext i1 @ECPGsetconn(i32 noundef %0, ptr noundef %1) local_unnamed_addr #0 {
  %3 = tail call ptr @ecpg_get_connection(ptr noundef %1)
  %4 = tail call zeroext i1 @ecpg_init(ptr noundef %3, ptr noundef %1, i32 noundef %0) #8
  br i1 %4, label %5, label %8

5:                                                ; preds = %2
  %6 = load i32, ptr @actual_connection_key, align 4
  %7 = tail call i32 @pthread_setspecific(i32 noundef %6, ptr noundef %3) #8
  br label %8

8:                                                ; preds = %2, %5
  ret i1 %4
}